; Function Attrs: mustprogress nounwind uwtable
define dso_local void @_ZN22b3DynamicBvhBroadphaseD2Ev(ptr noundef nonnull align 8 dereferenceable(315) %this) unnamed_addr #3 align 2 personality ptr @__gxx_personality_v0 {
entry:
  store ptr getelementptr inbounds ({ [15 x ptr] }, ptr @_ZTV22b3DynamicBvhBroadphase, i64 0, i32 0, i64 2), ptr %this, align 8
  %m_releasepaircache = getelementptr inbounds i8, ptr %this, i64 312
  %0 = load i8, ptr %m_releasepaircache, align 8
  %1 = and i8 %0, 1
  %tobool.not = icmp eq i8 %1, 0
  br i1 %tobool.not, label %if.end, label %if.then

if.then:                                          ; preds = %entry
  %m_paircache = getelementptr inbounds i8, ptr %this, i64 256
  %2 = load ptr, ptr %m_paircache, align 8
  %vtable = load ptr, ptr %2, align 8
  %3 = load ptr, ptr %vtable, align 8
  tail call void %3(ptr noundef nonnull align 8 dereferenceable(8) %2) #15
  %4 = load ptr, ptr %m_paircache, align 8
  invoke void @_Z21b3AlignedFreeInternalPv(ptr noundef %4)
          to label %if.end unwind label %terminate.lpad

if.end:                                           ; preds = %if.then, %entry
  %m_data.i.i.i = getelementptr inbounds i8, ptr %this, i64 240
  %5 = load ptr, ptr %m_data.i.i.i, align 8
  %tobool.not.i.i.i = icmp eq ptr %5, null
  br i1 %tobool.not.i.i.i, label %_ZN20b3AlignedObjectArrayI11b3DbvtProxyED2Ev.exit, label %if.then.i.i.i

if.then.i.i.i:                                    ; preds = %if.end
  %m_ownsMemory.i.i.i = getelementptr inbounds i8, ptr %this, i64 248
  %6 = load i8, ptr %m_ownsMemory.i.i.i, align 8
  %7 = and i8 %6, 1
  %tobool2.not.i.i.i = icmp eq i8 %7, 0
  br i1 %tobool2.not.i.i.i, label %_ZN20b3AlignedObjectArrayI11b3DbvtProxyED2Ev.exit, label %if.then3.i.i.i

if.then3.i.i.i:                                   ; preds = %if.then.i.i.i
  invoke void @_Z21b3AlignedFreeInternalPv(ptr noundef nonnull %5)
          to label %_ZN20b3AlignedObjectArrayI11b3DbvtProxyED2Ev.exit unwind label %terminate.lpad.i

terminate.lpad.i:                                 ; preds = %if.then3.i.i.i
  %8 = landingpad { ptr, i32 }
          catch ptr null
  %9 = extractvalue { ptr, i32 } %8, 0
  tail call void @__clang_call_terminate(ptr %9) #16
  unreachable

_ZN20b3AlignedObjectArrayI11b3DbvtProxyED2Ev.exit: ; preds = %if.end, %if.then.i.i.i, %if.then3.i.i.i
  %m_size.i.i.i = getelementptr inbounds i8, ptr %this, i64 228
  %m_ownsMemory.i1.i.i = getelementptr inbounds i8, ptr %this, i64 248
  store i8 1, ptr %m_ownsMemory.i1.i.i, align 8
  store ptr null, ptr %m_data.i.i.i, align 8
  store i32 0, ptr %m_size.i.i.i, align 4
  %m_capacity.i.i.i = getelementptr inbounds i8, ptr %this, i64 232
  store i32 0, ptr %m_capacity.i.i.i, align 8
  br label %arraydestroy.body

arraydestroy.body:                                ; preds = %arraydestroy.body, %_ZN20b3AlignedObjectArrayI11b3DbvtProxyED2Ev.exit
  %arraydestroy.elementPast.idx = phi i64 [ 200, %_ZN20b3AlignedObjectArrayI11b3DbvtProxyED2Ev.exit ], [ %arraydestroy.elementPast.add, %arraydestroy.body ]
  %arraydestroy.elementPast.add = add nsw i64 %arraydestroy.elementPast.idx, -96
  %arraydestroy.element.ptr = getelementptr inbounds i8, ptr %this, i64 %arraydestroy.elementPast.add
  tail call void @_ZN12b3DynamicBvhD1Ev(ptr noundef nonnull align 8 dereferenceable(96) %arraydestroy.element.ptr) #15
  %arraydestroy.done = icmp eq i64 %arraydestroy.elementPast.add, 8
  br i1 %arraydestroy.done, label %arraydestroy.done3, label %arraydestroy.body

arraydestroy.done3:                               ; preds = %arraydestroy.body
  ret void

terminate.lpad:                                   ; preds = %if.then
  %10 = landingpad { ptr, i32 }
          catch ptr null
  %11 = extractvalue { ptr, i32 } %10, 0
  tail call void @__clang_call_terminate(ptr %11) #16
  unreachable
}